target datalayout = "e-m:e-p270:32:32-p271:32:32-p272:64:64-i64:64-i128:128-f80:128-n8:16:32:64-S128"
target triple = "x86_64-pc-linux-gnu"

%struct._asn1_ctx_t = type { i32, i32, i8, ptr, ptr, ptr, ptr, ptr, %struct.anon, %struct.anon.2, %struct.anon.3, ptr }
%struct.anon = type { i32, i8, i8, i8, ptr, ptr, i32, i32, ptr, ptr, ptr, %union.anon }
%union.anon = type { %struct.anon.0 }
%struct.anon.0 = type { ptr }
%struct.anon.2 = type { ptr, ptr, ptr }
%struct.anon.3 = type { i32, i8, ptr, i32, i32, ptr, ptr, ptr, %union.anon.4 }
%union.anon.4 = type { %struct.anon.5 }
%struct.anon.5 = type { ptr }
%struct._packet_info = type { ptr, ptr, i32, i32, %struct.nstime_t, %struct.nstime_t, %struct.nstime_t, i8, ptr, ptr, ptr, ptr, %struct._address, %struct._address, %struct._address, %struct._address, %struct._address, %struct._address, i32, ptr, i8, [3 x i8], %struct.anon.7, i32, i32, i32, i32, ptr, i8, ptr, ptr, i16, i16, i32, i32, i16, i32, i32, ptr, ptr, ptr, i8, i8, i16, i16, i16, i32, i16, i16, ptr, ptr, ptr, ptr, ptr, i32, i32 }
%struct.nstime_t = type { i64, i32 }
%struct._address = type { i32, i32, ptr, ptr }
%struct.anon.7 = type { i8, [3 x i8] }

@hf_xnap_Target2SourceNG_RANnodeTranspContainer_PDU = internal global i32 0, align 4
@ett_xnap_container = internal global i32 0, align 4
@xnap_dissect_target_ng_ran_container_as = internal global i32 0, align 4

; Function Attrs: null_pointer_is_valid sspstrong uwtable
define internal i32 @dissect_xnap_Target2SourceNG_RANnodeTranspContainer(ptr noundef %0, i32 noundef %1, ptr noundef %2, ptr noundef %3, i32 noundef %4) #0 {
  %6 = alloca ptr, align 8
  %7 = alloca i32, align 4
  %8 = alloca ptr, align 8
  %9 = alloca ptr, align 8
  %10 = alloca i32, align 4
  %11 = alloca ptr, align 8
  %12 = alloca ptr, align 8
  %13 = alloca i32, align 4
  store ptr %0, ptr %6, align 8
  store i32 %1, ptr %7, align 4
  store ptr %2, ptr %8, align 8
  store ptr %3, ptr %9, align 8
  store i32 %4, ptr %10, align 4
  call void @llvm.lifetime.start.p0(i64 8, ptr %11) #9
  store ptr null, ptr %11, align 8
  %14 = load ptr, ptr %6, align 8
  %15 = load i32, ptr %7, align 4
  %16 = load ptr, ptr %8, align 8
  %17 = load ptr, ptr %9, align 8
  %18 = load i32, ptr %10, align 4
  %19 = call i32 @dissect_per_octet_string(ptr noundef %14, i32 noundef %15, ptr noundef %16, ptr noundef %17, i32 noundef %18, i32 noundef -1, i32 noundef -1, i1 noundef zeroext false, ptr noundef %11)
  store i32 %19, ptr %7, align 4
  %20 = load ptr, ptr %11, align 8
  %21 = icmp ne ptr %20, null
  br i1 %21, label %22, label %74

22:                                               ; preds = %5
  call void @llvm.lifetime.start.p0(i64 8, ptr %12) #9
  call void @llvm.lifetime.start.p0(i64 4, ptr %13) #9
  %23 = load ptr, ptr %8, align 8
  %24 = getelementptr inbounds nuw %struct._asn1_ctx_t, ptr %23, i32 0, i32 3
  %25 = load ptr, ptr %24, align 8
  %26 = getelementptr inbounds nuw %struct._packet_info, ptr %25, i32 0, i32 16
  %27 = load ptr, ptr %8, align 8
  %28 = getelementptr inbounds nuw %struct._asn1_ctx_t, ptr %27, i32 0, i32 3
  %29 = load ptr, ptr %28, align 8
  %30 = getelementptr inbounds nuw %struct._packet_info, ptr %29, i32 0, i32 24
  %31 = load i32, ptr %30, align 4
  %32 = load ptr, ptr %8, align 8
  %33 = getelementptr inbounds nuw %struct._asn1_ctx_t, ptr %32, i32 0, i32 3
  %34 = load ptr, ptr %33, align 8
  %35 = call i32 @xnap_get_ranmode_id(ptr noundef %26, i32 noundef %31, ptr noundef %34)
  store i32 %35, ptr %13, align 4
  %36 = load ptr, ptr %8, align 8
  %37 = getelementptr inbounds nuw %struct._asn1_ctx_t, ptr %36, i32 0, i32 4
  %38 = load ptr, ptr %37, align 8
  %39 = load i32, ptr @ett_xnap_container, align 4
  %40 = call ptr @proto_item_add_subtree(ptr noundef %38, i32 noundef %39)
  store ptr %40, ptr %12, align 8
  %41 = load i32, ptr @xnap_dissect_target_ng_ran_container_as, align 4
  %42 = icmp eq i32 %41, 0
  br i1 %42, label %43, label %46

43:                                               ; preds = %22
  %44 = load i32, ptr %13, align 4
  %45 = icmp eq i32 %44, 0
  br i1 %45, label %49, label %46

46:                                               ; preds = %43, %22
  %47 = load i32, ptr @xnap_dissect_target_ng_ran_container_as, align 4
  %48 = icmp eq i32 %47, 1
  br i1 %48, label %49, label %56

49:                                               ; preds = %46, %43
  %50 = load ptr, ptr %11, align 8
  %51 = load ptr, ptr %8, align 8
  %52 = getelementptr inbounds nuw %struct._asn1_ctx_t, ptr %51, i32 0, i32 3
  %53 = load ptr, ptr %52, align 8
  %54 = load ptr, ptr %12, align 8
  %55 = call i32 @dissect_nr_rrc_HandoverCommand_PDU(ptr noundef %50, ptr noundef %53, ptr noundef %54, ptr noundef null)
  br label %73

56:                                               ; preds = %46
  %57 = load i32, ptr @xnap_dissect_target_ng_ran_container_as, align 4
  %58 = icmp eq i32 %57, 0
  br i1 %58, label %59, label %62

59:                                               ; preds = %56
  %60 = load i32, ptr %13, align 4
  %61 = icmp eq i32 %60, 1
  br i1 %61, label %65, label %62

62:                                               ; preds = %59, %56
  %63 = load i32, ptr @xnap_dissect_target_ng_ran_container_as, align 4
  %64 = icmp eq i32 %63, 2
  br i1 %64, label %65, label %72

65:                                               ; preds = %62, %59
  %66 = load ptr, ptr %11, align 8
  %67 = load ptr, ptr %8, align 8
  %68 = getelementptr inbounds nuw %struct._asn1_ctx_t, ptr %67, i32 0, i32 3
  %69 = load ptr, ptr %68, align 8
  %70 = load ptr, ptr %12, align 8
  %71 = call i32 @dissect_lte_rrc_HandoverCommand_PDU(ptr noundef %66, ptr noundef %69, ptr noundef %70, ptr noundef null)
  br label %72

72:                                               ; preds = %65, %62
  br label %73

73:                                               ; preds = %72, %49
  call void @llvm.lifetime.end.p0(i64 4, ptr %13) #9
  call void @llvm.lifetime.end.p0(i64 8, ptr %12) #9
  br label %74

74:                                               ; preds = %73, %5
  %75 = load i32, ptr %7, align 4
  call void @llvm.lifetime.end.p0(i64 8, ptr %11) #9
  ret i32 %75
}

; Function Attrs: null_pointer_is_valid sspstrong uwtable
define internal i32 @dissect_Target2SourceNG_RANnodeTranspContainer_PDU(ptr noundef %0, ptr noundef %1, ptr noundef %2, ptr noundef %3) #0 {
  %5 = alloca ptr, align 8
  %6 = alloca ptr, align 8
  %7 = alloca ptr, align 8
  %8 = alloca ptr, align 8
  %9 = alloca i32, align 4
  %10 = alloca %struct._asn1_ctx_t, align 8
  store ptr %0, ptr %5, align 8
  store ptr %1, ptr %6, align 8
  store ptr %2, ptr %7, align 8
  store ptr %3, ptr %8, align 8
  call void @llvm.lifetime.start.p0(i64 4, ptr %9) #9
  store i32 0, ptr %9, align 4
  call void @llvm.lifetime.start.p0(i64 208, ptr %10) #9
  %11 = load ptr, ptr %6, align 8
  call void @asn1_ctx_init(ptr noundef %10, i32 noundef 1, i1 noundef zeroext true, ptr noundef %11)
  %12 = load ptr, ptr %5, align 8
  %13 = load i32, ptr %9, align 4
  %14 = load ptr, ptr %7, align 8
  %15 = load i32, ptr @hf_xnap_Target2SourceNG_RANnodeTranspContainer_PDU, align 4
  %16 = call i32 @dissect_xnap_Target2SourceNG_RANnodeTranspContainer(ptr noundef %12, i32 noundef %13, ptr noundef %10, ptr noundef %14, i32 noundef %15)
  store i32 %16, ptr %9, align 4
  %17 = load i32, ptr %9, align 4
  %18 = add i32 %17, 7
  store i32 %18, ptr %9, align 4
  %19 = load i32, ptr %9, align 4
  %20 = ashr i32 %19, 3
  store i32 %20, ptr %9, align 4
  %21 = load i32, ptr %9, align 4
  call void @llvm.lifetime.end.p0(i64 208, ptr %10) #9
  call void @llvm.lifetime.end.p0(i64 4, ptr %9) #9
  ret i32 %21
}