; Function Attrs: null_pointer_is_valid sspstrong uwtable
define internal range(i32 -268435456, 268435456) i32 @dissect_Target2SourceNG_RANnodeTranspContainer_PDU(ptr noundef %0, ptr noundef %1, ptr noundef %2, ptr readnone captures(none) %3) #0 {
  %5 = alloca ptr, align 8
  %6 = alloca %struct._asn1_ctx_t, align 8
  call void @llvm.lifetime.start.p0(i64 208, ptr nonnull %6) #9
  call void @asn1_ctx_init(ptr noundef nonnull %6, i32 noundef 1, i1 noundef zeroext true, ptr noundef %1)
  %7 = load i32, ptr @hf_xnap_Target2SourceNG_RANnodeTranspContainer_PDU, align 4
  call void @llvm.lifetime.start.p0(i64 8, ptr nonnull %5) #9
  store ptr null, ptr %5, align 8
  %8 = call i32 @dissect_per_octet_string(ptr noundef %0, i32 noundef 0, ptr noundef nonnull %6, ptr noundef %2, i32 noundef %7, i32 noundef -1, i32 noundef -1, i1 noundef zeroext false, ptr noundef nonnull %5)
  %9 = load ptr, ptr %5, align 8
  %.not.i = icmp eq ptr %9, null
  br i1 %.not.i, label %dissect_xnap_Target2SourceNG_RANnodeTranspContainer.exit, label %10

10:                                               ; preds = %4
  %11 = getelementptr inbounds nuw i8, ptr %6, i64 16
  %12 = load ptr, ptr %11, align 8
  %13 = getelementptr inbounds nuw i8, ptr %12, i64 208
  %14 = getelementptr inbounds nuw i8, ptr %12, i64 284
  %15 = load i32, ptr %14, align 4
  %16 = call fastcc i32 @xnap_get_ranmode_id(ptr noundef nonnull %13, i32 noundef %15, ptr noundef %12)
  %17 = getelementptr inbounds nuw i8, ptr %6, i64 24
  %18 = load ptr, ptr %17, align 8
  %19 = load i32, ptr @ett_xnap_container, align 4
  %20 = call ptr @proto_item_add_subtree(ptr noundef %18, i32 noundef %19)
  %21 = load i32, ptr @xnap_dissect_target_ng_ran_container_as, align 4
  %22 = icmp eq i32 %21, 0
  %23 = icmp eq i32 %16, 0
  %or.cond.i = select i1 %22, i1 %23, i1 false
  %24 = icmp eq i32 %21, 1
  %or.cond3.i = or i1 %24, %or.cond.i
  br i1 %or.cond3.i, label %25, label %29

25:                                               ; preds = %10
  %26 = load ptr, ptr %5, align 8
  %27 = load ptr, ptr %11, align 8
  %28 = call i32 @dissect_nr_rrc_HandoverCommand_PDU(ptr noundef %26, ptr noundef %27, ptr noundef %20, ptr noundef null)
  br label %dissect_xnap_Target2SourceNG_RANnodeTranspContainer.exit

29:                                               ; preds = %10
  %30 = icmp eq i32 %16, 1
  %or.cond5.i = select i1 %22, i1 %30, i1 false
  %31 = icmp eq i32 %21, 2
  %or.cond7.i = or i1 %31, %or.cond5.i
  br i1 %or.cond7.i, label %32, label %dissect_xnap_Target2SourceNG_RANnodeTranspContainer.exit

32:                                               ; preds = %29
  %33 = load ptr, ptr %5, align 8
  %34 = load ptr, ptr %11, align 8
  %35 = call i32 @dissect_lte_rrc_HandoverCommand_PDU(ptr noundef %33, ptr noundef %34, ptr noundef %20, ptr noundef null)
  br label %dissect_xnap_Target2SourceNG_RANnodeTranspContainer.exit

dissect_xnap_Target2SourceNG_RANnodeTranspContainer.exit: ; preds = %4, %25, %29, %32
  call void @llvm.lifetime.end.p0(i64 8, ptr nonnull %5) #9
  %36 = add i32 %8, 7
  %37 = ashr i32 %36, 3
  call void @llvm.lifetime.end.p0(i64 208, ptr nonnull %6) #9
  ret i32 %37
}